ccopy_reg
_reconstructor
p0
(csklearn.dummy
DummyRegressor
p1
c__builtin__
object
p2
Ntp3
Rp4
(dp5
S'constant_'
p6
cnumpy.core.multiarray
_reconstruct
p7
(cnumpy
ndarray
p8
(I0
tp9
S'b'
p10
tp11
Rp12
(I1
(I1
I1
tp13
cnumpy
dtype
p14
(S'f8'
p15
I0
I1
tp16
Rp17
(I3
S'<'
p18
NNNI-1
I-1
I0
tp19
bI00
S'q\x08\x87ph\xe1(\xbd'
p20
tp21
bsS'constant'
p22
NsS'output_2d_'
p23
I00
sS'n_outputs_'
p24
I1
sS'strategy'
p25
S'mean'
p26
sb.